; Function Attrs: nounwind sspstrong uwtable
define internal void @opts_optional(ptr noundef readonly captures(none) %v, ptr noundef %name, ptr noundef writeonly captures(none) %present) #0 {
entry:
  %list_mode = getelementptr inbounds nuw i8, ptr %v, i64 240
  %0 = load i32, ptr %list_mode, align 8
  %cmp = icmp eq i32 %0, 0
  br i1 %cmp, label %if.end, label %if.else

if.else:                                          ; preds = %entry
  tail call void @__assert_fail(ptr noundef nonnull @.str.5, ptr noundef nonnull @.str.1, i32 noundef 534, ptr noundef nonnull @__PRETTY_FUNCTION__.opts_optional) #8
  unreachable

if.end:                                           ; preds = %entry
  %1 = getelementptr i8, ptr %v, i64 232
  %call.val = load ptr, ptr %1, align 8
  %call.i = tail call ptr @g_hash_table_lookup(ptr noundef %call.val, ptr noundef %name) #10
  %tobool.not.i = icmp eq ptr %call.i, null
  br i1 %tobool.not.i, label %if.then.i, label %lookup_distinct.exit

if.then.i:                                        ; preds = %if.end
  tail call void (ptr, ptr, i32, ptr, ptr, ...) @error_setg_internal(ptr noundef null, ptr noundef nonnull @.str.1, i32 noundef 221, ptr noundef nonnull @__func__.lookup_distinct, ptr noundef nonnull @.str.7, ptr noundef %name) #10
  br label %lookup_distinct.exit

lookup_distinct.exit:                             ; preds = %if.end, %if.then.i
  %cmp2 = icmp ne ptr %call.i, null
  %frombool = zext i1 %cmp2 to i8
  store i8 %frombool, ptr %present, align 1
  ret void
}